target datalayout = "e-m:e-p270:32:32-p271:32:32-p272:64:64-i64:64-i128:128-f80:128-n8:16:32:64-S128"
target triple = "x86_64-pc-linux-gnu"

%struct.nghttp2_stream = type { i32, %struct.nghttp2_pq_entry, i64, i64, i64, i64, ptr, ptr, ptr, i64, i32, i32, i32, i32, i32, i32, i32, i16, i32, i8, i8, i8, i8, i8, i8 }
%struct.nghttp2_pq_entry = type { i64 }
%struct.nghttp2_session = type { %struct.nghttp2_map, %struct.nghttp2_outbound_queue, %struct.nghttp2_outbound_queue, %struct.nghttp2_outbound_queue, [8 x %struct.anon], %struct.nghttp2_active_outbound_item, %struct.nghttp2_inbound_frame, %struct.nghttp2_hd_deflater, %struct.nghttp2_hd_inflater, %struct.nghttp2_session_callbacks, %struct.nghttp2_mem, ptr, ptr, %struct.nghttp2_ratelim, i64, i64, i64, i64, i64, i64, i64, i64, i64, i64, i64, i64, i64, i64, i32, i32, i32, i32, i32, i32, i32, i32, i32, i32, i32, i32, i8, %struct.nghttp2_settings_storage, %struct.nghttp2_settings_storage, i32, i32, i32, i8, i8, i8, i8, i8, i8, [32 x i8] }
%struct.nghttp2_map = type { ptr, ptr, i64, i64 }
%struct.nghttp2_outbound_queue = type { ptr, ptr, i64 }
%struct.anon = type { %struct.nghttp2_pq }
%struct.nghttp2_pq = type { ptr, ptr, i64, i64, ptr }
%struct.nghttp2_active_outbound_item = type { ptr, %struct.nghttp2_bufs, i32 }
%struct.nghttp2_bufs = type { ptr, ptr, ptr, i64, i64, i64, i64, i64 }
%struct.nghttp2_inbound_frame = type { %union.nghttp2_frame, %union.nghttp2_ext_frame_payload, ptr, %struct.nghttp2_buf, %struct.nghttp2_buf, ptr, i64, i64, i64, i64, i32, [32 x i8] }
%union.nghttp2_frame = type { %struct.nghttp2_headers }
%struct.nghttp2_headers = type { %struct.nghttp2_frame_hd, i64, %struct.nghttp2_priority_spec, ptr, i64, i32 }
%struct.nghttp2_frame_hd = type { i64, i32, i8, i8, i8 }
%struct.nghttp2_priority_spec = type { i32, i32, i8 }
%union.nghttp2_ext_frame_payload = type { %struct.nghttp2_ext_altsvc }
%struct.nghttp2_ext_altsvc = type { ptr, i64, ptr, i64 }
%struct.nghttp2_buf = type { ptr, ptr, ptr, ptr, ptr }
%struct.nghttp2_hd_deflater = type { %struct.nghttp2_hd_context, %struct.nghttp2_hd_map, i64, i64, i8 }
%struct.nghttp2_hd_context = type { %struct.nghttp2_hd_ringbuf, ptr, i64, i64, i32, i8 }
%struct.nghttp2_hd_ringbuf = type { ptr, i64, i64, i64 }
%struct.nghttp2_hd_map = type { [128 x ptr] }
%struct.nghttp2_hd_inflater = type { %struct.nghttp2_hd_context, %struct.nghttp2_hd_huff_decode_context, %struct.nghttp2_buf, %struct.nghttp2_buf, ptr, ptr, ptr, ptr, i64, i64, i64, i64, i64, i32, i32, i8, i8, i8 }
%struct.nghttp2_hd_huff_decode_context = type { i16 }
%struct.nghttp2_session_callbacks = type { ptr, ptr, ptr, ptr, ptr, ptr, ptr, ptr, ptr, ptr, ptr, ptr, ptr, ptr, ptr, ptr, ptr, ptr, ptr, ptr, ptr, ptr, ptr, ptr, ptr, ptr, ptr, ptr }
%struct.nghttp2_mem = type { ptr, ptr, ptr, ptr, ptr }
%struct.nghttp2_ratelim = type { i64, i64, i64, i64 }
%struct.nghttp2_settings_storage = type { i32, i32, i32, i32, i32, i32, i32, i32 }
%struct.nghttp2_extpri = type { i32, i32 }

@.str.1 = private unnamed_addr constant [115 x i8] c"generated/home/dtcxzyw/WorkSpace/Projects/compilers/llvm-opt-benchmark/bench/nghttp2/nghttp2/lib/nghttp2_session.c\00", align 1
@.str.70 = private unnamed_addr constant [40 x i8] c"urgency < NGHTTP2_EXTPRI_URGENCY_LEVELS\00", align 1
@.str.71 = private unnamed_addr constant [20 x i8] c"stream->queued == 1\00", align 1
@__PRETTY_FUNCTION__.session_ob_data_remove = private unnamed_addr constant [65 x i8] c"void session_ob_data_remove(nghttp2_session *, nghttp2_stream *)\00", align 1

; Function Attrs: nounwind uwtable
define internal void @session_ob_data_remove(ptr noundef %0, ptr noundef %1) #0 {
  %3 = alloca ptr, align 8
  %4 = alloca ptr, align 8
  %5 = alloca i32, align 4
  store ptr %0, ptr %3, align 8, !tbaa !7
  store ptr %1, ptr %4, align 8, !tbaa !43
  call void @llvm.lifetime.start.p0(i64 4, ptr %5) #10
  %6 = load ptr, ptr %4, align 8, !tbaa !43
  %7 = getelementptr inbounds nuw %struct.nghttp2_stream, ptr %6, i32 0, i32 21
  %8 = load i8, ptr %7, align 2, !tbaa !144
  %9 = zext i8 %8 to i32
  %10 = icmp eq i32 %9, 1
  br i1 %10, label %11, label %12

11:                                               ; preds = %2
  br label %13

12:                                               ; preds = %2
  call void @__assert_fail(ptr noundef @.str.71, ptr noundef @.str.1, i32 noundef 858, ptr noundef @__PRETTY_FUNCTION__.session_ob_data_remove) #12
  unreachable

13:                                               ; preds = %11
  %14 = load ptr, ptr %4, align 8, !tbaa !43
  %15 = getelementptr inbounds nuw %struct.nghttp2_stream, ptr %14, i32 0, i32 23
  %16 = load i8, ptr %15, align 8, !tbaa !146
  %17 = zext i8 %16 to i32
  %18 = and i32 %17, -129
  store i32 %18, ptr %5, align 4, !tbaa !3
  %19 = load i32, ptr %5, align 4, !tbaa !3
  %20 = icmp ult i32 %19, 8
  br i1 %20, label %21, label %22

21:                                               ; preds = %13
  br label %23

22:                                               ; preds = %13
  call void @__assert_fail(ptr noundef @.str.70, ptr noundef @.str.1, i32 noundef 862, ptr noundef @__PRETTY_FUNCTION__.session_ob_data_remove) #12
  unreachable

23:                                               ; preds = %21
  %24 = load ptr, ptr %3, align 8, !tbaa !7
  %25 = getelementptr inbounds nuw %struct.nghttp2_session, ptr %24, i32 0, i32 4
  %26 = load i32, ptr %5, align 4, !tbaa !3
  %27 = zext i32 %26 to i64
  %28 = getelementptr inbounds nuw [8 x %struct.anon], ptr %25, i64 0, i64 %27
  %29 = getelementptr inbounds nuw %struct.anon, ptr %28, i32 0, i32 0
  %30 = load ptr, ptr %4, align 8, !tbaa !43
  %31 = getelementptr inbounds nuw %struct.nghttp2_stream, ptr %30, i32 0, i32 1
  call void @nghttp2_pq_remove(ptr noundef %29, ptr noundef %31)
  %32 = load ptr, ptr %4, align 8, !tbaa !43
  %33 = getelementptr inbounds nuw %struct.nghttp2_stream, ptr %32, i32 0, i32 21
  store i8 0, ptr %33, align 2, !tbaa !144
  call void @llvm.lifetime.end.p0(i64 4, ptr %5) #10
  ret void
}

; Function Attrs: nounwind uwtable
define internal i32 @session_update_stream_priority(ptr noundef %0, ptr noundef %1, i8 noundef zeroext %2) #0 {
  %4 = alloca i32, align 4
  %5 = alloca ptr, align 8
  %6 = alloca ptr, align 8
  %7 = alloca i8, align 1
  store ptr %0, ptr %5, align 8, !tbaa !7
  store ptr %1, ptr %6, align 8, !tbaa !43
  store i8 %2, ptr %7, align 1, !tbaa !117
  %8 = load ptr, ptr %6, align 8, !tbaa !43
  %9 = getelementptr inbounds nuw %struct.nghttp2_stream, ptr %8, i32 0, i32 23
  %10 = load i8, ptr %9, align 8, !tbaa !146
  %11 = zext i8 %10 to i32
  %12 = load i8, ptr %7, align 1, !tbaa !117
  %13 = zext i8 %12 to i32
  %14 = icmp eq i32 %11, %13
  br i1 %14, label %15, label %16

15:                                               ; preds = %3
  store i32 0, ptr %4, align 4
  br label %34

16:                                               ; preds = %3
  %17 = load ptr, ptr %6, align 8, !tbaa !43
  %18 = getelementptr inbounds nuw %struct.nghttp2_stream, ptr %17, i32 0, i32 21
  %19 = load i8, ptr %18, align 2, !tbaa !144
  %20 = icmp ne i8 %19, 0
  br i1 %20, label %21, label %30

21:                                               ; preds = %16
  %22 = load ptr, ptr %5, align 8, !tbaa !7
  %23 = load ptr, ptr %6, align 8, !tbaa !43
  call void @session_ob_data_remove(ptr noundef %22, ptr noundef %23)
  %24 = load i8, ptr %7, align 1, !tbaa !117
  %25 = load ptr, ptr %6, align 8, !tbaa !43
  %26 = getelementptr inbounds nuw %struct.nghttp2_stream, ptr %25, i32 0, i32 23
  store i8 %24, ptr %26, align 8, !tbaa !146
  %27 = load ptr, ptr %5, align 8, !tbaa !7
  %28 = load ptr, ptr %6, align 8, !tbaa !43
  %29 = call i32 @session_ob_data_push(ptr noundef %27, ptr noundef %28)
  store i32 %29, ptr %4, align 4
  br label %34

30:                                               ; preds = %16
  %31 = load i8, ptr %7, align 1, !tbaa !117
  %32 = load ptr, ptr %6, align 8, !tbaa !43
  %33 = getelementptr inbounds nuw %struct.nghttp2_stream, ptr %32, i32 0, i32 23
  store i8 %31, ptr %33, align 8, !tbaa !146
  store i32 0, ptr %4, align 4
  br label %34

34:                                               ; preds = %30, %21, %15
  %35 = load i32, ptr %4, align 4
  ret i32 %35
}

; Function Attrs: nounwind uwtable
define hidden ptr @nghttp2_session_get_stream_raw(ptr noundef %0, i32 noundef %1) #0 {
  %3 = alloca ptr, align 8
  %4 = alloca i32, align 4
  store ptr %0, ptr %3, align 8, !tbaa !7
  store i32 %1, ptr %4, align 4, !tbaa !3
  %5 = load ptr, ptr %3, align 8, !tbaa !7
  %6 = getelementptr inbounds nuw %struct.nghttp2_session, ptr %5, i32 0, i32 0
  %7 = load i32, ptr %4, align 4, !tbaa !3
  %8 = call ptr @nghttp2_map_find(ptr noundef %6, i32 noundef %7)
  ret ptr %8
}

; Function Attrs: nounwind uwtable
define i32 @nghttp2_session_change_extpri_stream_priority(ptr noundef %0, i32 noundef %1, ptr noundef %2, i32 noundef %3) #0 {
  %5 = alloca i32, align 4
  %6 = alloca ptr, align 8
  %7 = alloca i32, align 4
  %8 = alloca ptr, align 8
  %9 = alloca i32, align 4
  %10 = alloca ptr, align 8
  %11 = alloca %struct.nghttp2_extpri, align 4
  %12 = alloca i32, align 4
  store ptr %0, ptr %6, align 8, !tbaa !7
  store i32 %1, ptr %7, align 4, !tbaa !3
  store ptr %2, ptr %8, align 8, !tbaa !275
  store i32 %3, ptr %9, align 4, !tbaa !3
  call void @llvm.lifetime.start.p0(i64 8, ptr %10) #10
  call void @llvm.lifetime.start.p0(i64 8, ptr %11) #10
  %13 = load ptr, ptr %8, align 8, !tbaa !275
  call void @llvm.memcpy.p0.p0.i64(ptr align 4 %11, ptr align 4 %13, i64 8, i1 false), !tbaa.struct !249
  %14 = load ptr, ptr %6, align 8, !tbaa !7
  %15 = getelementptr inbounds nuw %struct.nghttp2_session, ptr %14, i32 0, i32 49
  %16 = load i8, ptr %15, align 1, !tbaa !42
  %17 = icmp ne i8 %16, 0
  br i1 %17, label %19, label %18

18:                                               ; preds = %4
  store i32 -519, ptr %5, align 4
  store i32 1, ptr %12, align 4
  br label %58

19:                                               ; preds = %4
  %20 = load ptr, ptr %6, align 8, !tbaa !7
  %21 = getelementptr inbounds nuw %struct.nghttp2_session, ptr %20, i32 0, i32 48
  %22 = load i8, ptr %21, align 2, !tbaa !67
  %23 = zext i8 %22 to i32
  %24 = icmp ne i32 %23, 1
  br i1 %24, label %25, label %26

25:                                               ; preds = %19
  store i32 0, ptr %5, align 4
  store i32 1, ptr %12, align 4
  br label %58

26:                                               ; preds = %19
  %27 = load i32, ptr %7, align 4, !tbaa !3
  %28 = icmp eq i32 %27, 0
  br i1 %28, label %29, label %30

29:                                               ; preds = %26
  store i32 -501, ptr %5, align 4
  store i32 1, ptr %12, align 4
  br label %58

30:                                               ; preds = %26
  %31 = load ptr, ptr %6, align 8, !tbaa !7
  %32 = load i32, ptr %7, align 4, !tbaa !3
  %33 = call ptr @nghttp2_session_get_stream_raw(ptr noundef %31, i32 noundef %32)
  store ptr %33, ptr %10, align 8, !tbaa !43
  %34 = load ptr, ptr %10, align 8, !tbaa !43
  %35 = icmp ne ptr %34, null
  br i1 %35, label %37, label %36

36:                                               ; preds = %30
  store i32 -501, ptr %5, align 4
  store i32 1, ptr %12, align 4
  br label %58

37:                                               ; preds = %30
  %38 = getelementptr inbounds nuw %struct.nghttp2_extpri, ptr %11, i32 0, i32 0
  %39 = load i32, ptr %38, align 4, !tbaa !215
  %40 = icmp ugt i32 %39, 7
  br i1 %40, label %41, label %43

41:                                               ; preds = %37
  %42 = getelementptr inbounds nuw %struct.nghttp2_extpri, ptr %11, i32 0, i32 0
  store i32 7, ptr %42, align 4, !tbaa !215
  br label %43

43:                                               ; preds = %41, %37
  %44 = load i32, ptr %9, align 4, !tbaa !3
  %45 = icmp ne i32 %44, 0
  br i1 %45, label %46, label %53

46:                                               ; preds = %43
  %47 = load ptr, ptr %10, align 8, !tbaa !43
  %48 = getelementptr inbounds nuw %struct.nghttp2_stream, ptr %47, i32 0, i32 19
  %49 = load i8, ptr %48, align 4, !tbaa !45
  %50 = zext i8 %49 to i32
  %51 = or i32 %50, 32
  %52 = trunc i32 %51 to i8
  store i8 %52, ptr %48, align 4, !tbaa !45
  br label %53

53:                                               ; preds = %46, %43
  %54 = load ptr, ptr %6, align 8, !tbaa !7
  %55 = load ptr, ptr %10, align 8, !tbaa !43
  %56 = call zeroext i8 @nghttp2_extpri_to_uint8(ptr noundef %11)
  %57 = call i32 @session_update_stream_priority(ptr noundef %54, ptr noundef %55, i8 noundef zeroext %56)
  store i32 %57, ptr %5, align 4
  store i32 1, ptr %12, align 4
  br label %58

58:                                               ; preds = %53, %36, %29, %25, %18
  call void @llvm.lifetime.end.p0(i64 8, ptr %11) #10
  call void @llvm.lifetime.end.p0(i64 8, ptr %10) #10
  %59 = load i32, ptr %5, align 4
  ret i32 %59
}