; Function Attrs: nounwind uwtable
define i32 @nghttp2_session_change_extpri_stream_priority(ptr noundef %0, i32 noundef %1, ptr noundef readonly captures(none) %2, i32 noundef %3) local_unnamed_addr #1 {
  %5 = alloca %struct.nghttp2_extpri, align 8
  call void @llvm.lifetime.start.p0(i64 8, ptr nonnull %5) #16
  %6 = load i64, ptr %2, align 4
  store i64 %6, ptr %5, align 8
  %7 = getelementptr inbounds nuw i8, ptr %0, i64 2675
  %8 = load i8, ptr %7, align 1, !tbaa !37
  %.not = icmp eq i8 %8, 0
  br i1 %.not, label %session_update_stream_priority.exit, label %9

9:                                                ; preds = %4
  %10 = getelementptr inbounds nuw i8, ptr %0, i64 2674
  %11 = load i8, ptr %10, align 2, !tbaa !57
  %.not13 = icmp eq i8 %11, 1
  br i1 %.not13, label %12, label %session_update_stream_priority.exit

12:                                               ; preds = %9
  %13 = icmp eq i32 %1, 0
  br i1 %13, label %session_update_stream_priority.exit, label %14

14:                                               ; preds = %12
  %15 = tail call ptr @nghttp2_map_find(ptr noundef nonnull %0, i32 noundef %1) #16
  %.not14 = icmp eq ptr %15, null
  br i1 %.not14, label %session_update_stream_priority.exit, label %16

16:                                               ; preds = %14
  %17 = and i64 %6, 4294967288
  %.not16 = icmp eq i64 %17, 0
  br i1 %.not16, label %19, label %18

18:                                               ; preds = %16
  store i32 7, ptr %5, align 8, !tbaa !218
  br label %19

19:                                               ; preds = %18, %16
  %.not15 = icmp eq i32 %3, 0
  br i1 %.not15, label %24, label %20

20:                                               ; preds = %19
  %21 = getelementptr inbounds nuw i8, ptr %15, i64 116
  %22 = load i8, ptr %21, align 4, !tbaa !38
  %23 = or i8 %22, 32
  store i8 %23, ptr %21, align 4, !tbaa !38
  br label %24

24:                                               ; preds = %20, %19
  %25 = call zeroext i8 @nghttp2_extpri_to_uint8(ptr noundef nonnull %5) #16
  %26 = getelementptr inbounds nuw i8, ptr %15, i64 120
  %27 = load i8, ptr %26, align 8, !tbaa !138
  %28 = icmp eq i8 %27, %25
  br i1 %28, label %session_update_stream_priority.exit, label %29

29:                                               ; preds = %24
  %30 = getelementptr inbounds nuw i8, ptr %15, i64 118
  %31 = load i8, ptr %30, align 2, !tbaa !137
  switch i8 %31, label %32 [
    i8 0, label %42
    i8 1, label %33
  ]

32:                                               ; preds = %29
  call void @__assert_fail(ptr noundef nonnull @.str.71, ptr noundef nonnull @.str.1, i32 noundef 858, ptr noundef nonnull @__PRETTY_FUNCTION__.session_ob_data_remove) #17
  unreachable

33:                                               ; preds = %29
  %34 = and i8 %27, 127
  %35 = icmp samesign ult i8 %34, 8
  br i1 %35, label %session_ob_data_remove.exit.i, label %36

36:                                               ; preds = %33
  call void @__assert_fail(ptr noundef nonnull @.str.70, ptr noundef nonnull @.str.1, i32 noundef 862, ptr noundef nonnull @__PRETTY_FUNCTION__.session_ob_data_remove) #17
  unreachable

session_ob_data_remove.exit.i:                    ; preds = %33
  %37 = getelementptr inbounds nuw i8, ptr %0, i64 104
  %38 = zext nneg i8 %34 to i64
  %39 = getelementptr inbounds nuw [8 x %struct.anon], ptr %37, i64 0, i64 %38
  %40 = getelementptr inbounds nuw i8, ptr %15, i64 8
  call void @nghttp2_pq_remove(ptr noundef nonnull %39, ptr noundef nonnull %40) #16
  store i8 0, ptr %30, align 2, !tbaa !137
  store i8 %25, ptr %26, align 8, !tbaa !138
  %41 = call fastcc i32 @session_ob_data_push(ptr noundef nonnull %0, ptr noundef nonnull %15)
  br label %session_update_stream_priority.exit

42:                                               ; preds = %29
  store i8 %25, ptr %26, align 8, !tbaa !138
  br label %session_update_stream_priority.exit

session_update_stream_priority.exit:              ; preds = %42, %session_ob_data_remove.exit.i, %24, %14, %12, %9, %4
  %.0 = phi i32 [ -519, %4 ], [ 0, %9 ], [ -501, %12 ], [ -501, %14 ], [ %41, %session_ob_data_remove.exit.i ], [ 0, %42 ], [ 0, %24 ]
  call void @llvm.lifetime.end.p0(i64 8, ptr nonnull %5) #16
  ret i32 %.0
}